target datalayout = "e-m:e-p270:32:32-p271:32:32-p272:64:64-i64:64-i128:128-f80:128-n8:16:32:64-S128"
target triple = "x86_64-pc-linux-gnu"

%struct.GetBitContext = type { ptr, ptr, i32, i32, i32 }
%struct.H2645Packet = type { ptr, %struct.H2645RBSP, i32, i32, i32 }
%struct.H2645RBSP = type { ptr, ptr, i32, i32 }
%struct.H2645NAL = type { ptr, i32, i32, i32, ptr, %struct.GetBitContext, i32, i32, i32, i32, i32, i32, ptr }

@.str.17 = private unnamed_addr constant [58 x i8] c"SPS decoding failure, trying again with the complete NAL\0A\00", align 1
@.str.18 = private unnamed_addr constant [35 x i8] c"Ignoring NAL type %d in extradata\0A\00", align 1

; Function Attrs: inlinehint nounwind uwtable
define internal i32 @init_get_bits(ptr noundef %0, ptr noundef %1, i32 noundef %2) #2 {
  %4 = alloca ptr, align 8
  %5 = alloca ptr, align 8
  %6 = alloca i32, align 4
  %7 = alloca i32, align 4
  %8 = alloca i32, align 4
  store ptr %0, ptr %4, align 8, !tbaa !4
  store ptr %1, ptr %5, align 8, !tbaa !41
  store i32 %2, ptr %6, align 4, !tbaa !13
  call void @llvm.lifetime.start.p0(i64 4, ptr %7) #9
  call void @llvm.lifetime.start.p0(i64 4, ptr %8) #9
  store i32 0, ptr %8, align 4, !tbaa !13
  %9 = load i32, ptr %6, align 4, !tbaa !13
  %10 = icmp sge i32 %9, 2147483135
  br i1 %10, label %17, label %11

11:                                               ; preds = %3
  %12 = load i32, ptr %6, align 4, !tbaa !13
  %13 = icmp slt i32 %12, 0
  br i1 %13, label %17, label %14

14:                                               ; preds = %11
  %15 = load ptr, ptr %5, align 8, !tbaa !41
  %16 = icmp ne ptr %15, null
  br i1 %16, label %18, label %17

17:                                               ; preds = %14, %11, %3
  store i32 0, ptr %6, align 4, !tbaa !13
  store ptr null, ptr %5, align 8, !tbaa !41
  store i32 -1094995529, ptr %8, align 4, !tbaa !13
  br label %18

18:                                               ; preds = %17, %14
  %19 = load i32, ptr %6, align 4, !tbaa !13
  %20 = add nsw i32 %19, 7
  %21 = ashr i32 %20, 3
  store i32 %21, ptr %7, align 4, !tbaa !13
  %22 = load ptr, ptr %5, align 8, !tbaa !41
  %23 = load ptr, ptr %4, align 8, !tbaa !4
  %24 = getelementptr inbounds nuw %struct.GetBitContext, ptr %23, i32 0, i32 0
  store ptr %22, ptr %24, align 8, !tbaa !39
  %25 = load i32, ptr %6, align 4, !tbaa !13
  %26 = load ptr, ptr %4, align 8, !tbaa !4
  %27 = getelementptr inbounds nuw %struct.GetBitContext, ptr %26, i32 0, i32 3
  store i32 %25, ptr %27, align 4, !tbaa !105
  %28 = load i32, ptr %6, align 4, !tbaa !13
  %29 = add nsw i32 %28, 8
  %30 = load ptr, ptr %4, align 8, !tbaa !4
  %31 = getelementptr inbounds nuw %struct.GetBitContext, ptr %30, i32 0, i32 4
  store i32 %29, ptr %31, align 8, !tbaa !38
  %32 = load ptr, ptr %5, align 8, !tbaa !41
  %33 = load i32, ptr %7, align 4, !tbaa !13
  %34 = sext i32 %33 to i64
  %35 = getelementptr inbounds i8, ptr %32, i64 %34
  %36 = load ptr, ptr %4, align 8, !tbaa !4
  %37 = getelementptr inbounds nuw %struct.GetBitContext, ptr %36, i32 0, i32 1
  store ptr %35, ptr %37, align 8, !tbaa !106
  %38 = load ptr, ptr %4, align 8, !tbaa !4
  %39 = getelementptr inbounds nuw %struct.GetBitContext, ptr %38, i32 0, i32 2
  store i32 0, ptr %39, align 8, !tbaa !35
  %40 = load i32, ptr %8, align 4, !tbaa !13
  call void @llvm.lifetime.end.p0(i64 4, ptr %8) #9
  call void @llvm.lifetime.end.p0(i64 4, ptr %7) #9
  ret i32 %40
}

; Function Attrs: inlinehint nounwind uwtable
define internal i32 @init_get_bits8(ptr noundef %0, ptr noundef %1, i32 noundef %2) #2 {
  %4 = alloca ptr, align 8
  %5 = alloca ptr, align 8
  %6 = alloca i32, align 4
  store ptr %0, ptr %4, align 8, !tbaa !4
  store ptr %1, ptr %5, align 8, !tbaa !41
  store i32 %2, ptr %6, align 4, !tbaa !13
  %7 = load i32, ptr %6, align 4, !tbaa !13
  %8 = icmp sgt i32 %7, 268435455
  br i1 %8, label %12, label %9

9:                                                ; preds = %3
  %10 = load i32, ptr %6, align 4, !tbaa !13
  %11 = icmp slt i32 %10, 0
  br i1 %11, label %12, label %13

12:                                               ; preds = %9, %3
  store i32 -1, ptr %6, align 4, !tbaa !13
  br label %13

13:                                               ; preds = %12, %9
  %14 = load ptr, ptr %4, align 8, !tbaa !4
  %15 = load ptr, ptr %5, align 8, !tbaa !41
  %16 = load i32, ptr %6, align 4, !tbaa !13
  %17 = mul nsw i32 %16, 8
  %18 = call i32 @init_get_bits(ptr noundef %14, ptr noundef %15, i32 noundef %17)
  ret i32 %18
}

; Function Attrs: nounwind uwtable
define internal i32 @decode_extradata_ps(ptr noundef %0, i32 noundef %1, ptr noundef %2, i32 noundef %3, ptr noundef %4) #0 {
  %6 = alloca i32, align 4
  %7 = alloca ptr, align 8
  %8 = alloca i32, align 4
  %9 = alloca ptr, align 8
  %10 = alloca i32, align 4
  %11 = alloca ptr, align 8
  %12 = alloca %struct.H2645Packet, align 8
  %13 = alloca i32, align 4
  %14 = alloca i32, align 4
  %15 = alloca i32, align 4
  %16 = alloca ptr, align 8
  %17 = alloca %struct.GetBitContext, align 8
  %18 = alloca i32, align 4
  store ptr %0, ptr %7, align 8, !tbaa !41
  store i32 %1, ptr %8, align 4, !tbaa !13
  store ptr %2, ptr %9, align 8, !tbaa !67
  store i32 %3, ptr %10, align 4, !tbaa !13
  store ptr %4, ptr %11, align 8, !tbaa !17
  call void @llvm.lifetime.start.p0(i64 48, ptr %12) #9
  call void @llvm.memset.p0.i64(ptr align 8 %12, i8 0, i64 48, i1 false)
  call void @llvm.lifetime.start.p0(i64 4, ptr %13) #9
  %19 = load i32, ptr %10, align 4, !tbaa !13
  %20 = icmp ne i32 %19, 0
  %21 = xor i1 %20, true
  %22 = xor i1 %21, true
  %23 = zext i1 %22 to i32
  %24 = mul nsw i32 1, %23
  %25 = or i32 %24, 2
  store i32 %25, ptr %13, align 4, !tbaa !13
  call void @llvm.lifetime.start.p0(i64 4, ptr %14) #9
  call void @llvm.lifetime.start.p0(i64 4, ptr %15) #9
  store i32 0, ptr %15, align 4, !tbaa !13
  %26 = load ptr, ptr %7, align 8, !tbaa !41
  %27 = load i32, ptr %8, align 4, !tbaa !13
  %28 = load ptr, ptr %11, align 8, !tbaa !17
  %29 = load i32, ptr %13, align 4, !tbaa !13
  %30 = call i32 @ff_h2645_packet_split(ptr noundef %12, ptr noundef %26, i32 noundef %27, ptr noundef %28, i32 noundef 2, i32 noundef 27, i32 noundef %29)
  store i32 %30, ptr %15, align 4, !tbaa !13
  %31 = load i32, ptr %15, align 4, !tbaa !13
  %32 = icmp slt i32 %31, 0
  br i1 %32, label %33, label %34

33:                                               ; preds = %5
  store i32 0, ptr %15, align 4, !tbaa !13
  br label %113

34:                                               ; preds = %5
  store i32 0, ptr %14, align 4, !tbaa !13
  br label %35

35:                                               ; preds = %109, %34
  %36 = load i32, ptr %14, align 4, !tbaa !13
  %37 = getelementptr inbounds nuw %struct.H2645Packet, ptr %12, i32 0, i32 2
  %38 = load i32, ptr %37, align 8, !tbaa !73
  %39 = icmp slt i32 %36, %38
  br i1 %39, label %40, label %112

40:                                               ; preds = %35
  call void @llvm.lifetime.start.p0(i64 8, ptr %16) #9
  %41 = getelementptr inbounds nuw %struct.H2645Packet, ptr %12, i32 0, i32 0
  %42 = load ptr, ptr %41, align 8, !tbaa !78
  %43 = load i32, ptr %14, align 4, !tbaa !13
  %44 = sext i32 %43 to i64
  %45 = getelementptr inbounds %struct.H2645NAL, ptr %42, i64 %44
  store ptr %45, ptr %16, align 8, !tbaa !79
  %46 = load ptr, ptr %16, align 8, !tbaa !79
  %47 = getelementptr inbounds nuw %struct.H2645NAL, ptr %46, i32 0, i32 6
  %48 = load i32, ptr %47, align 8, !tbaa !80
  switch i32 %48, label %100 [
    i32 7, label %49
    i32 8, label %87
  ]

49:                                               ; preds = %40
  call void @llvm.lifetime.start.p0(i64 32, ptr %17) #9
  %50 = load ptr, ptr %16, align 8, !tbaa !79
  %51 = getelementptr inbounds nuw %struct.H2645NAL, ptr %50, i32 0, i32 5
  call void @llvm.memcpy.p0.p0.i64(ptr align 8 %17, ptr align 8 %51, i64 32, i1 false), !tbaa.struct !82
  %52 = load ptr, ptr %11, align 8, !tbaa !17
  %53 = load ptr, ptr %9, align 8, !tbaa !67
  %54 = call i32 @ff_h264_decode_seq_parameter_set(ptr noundef %17, ptr noundef %52, ptr noundef %53, i32 noundef 0)
  store i32 %54, ptr %15, align 4, !tbaa !13
  %55 = load i32, ptr %15, align 4, !tbaa !13
  %56 = icmp sge i32 %55, 0
  br i1 %56, label %57, label %58

57:                                               ; preds = %49
  store i32 6, ptr %18, align 4
  br label %85

58:                                               ; preds = %49
  %59 = load ptr, ptr %11, align 8, !tbaa !17
  call void (ptr, i32, ptr, ...) @av_log(ptr noundef %59, i32 noundef 48, ptr noundef @.str.17)
  %60 = load ptr, ptr %16, align 8, !tbaa !79
  %61 = getelementptr inbounds nuw %struct.H2645NAL, ptr %60, i32 0, i32 4
  %62 = load ptr, ptr %61, align 8, !tbaa !83
  %63 = getelementptr inbounds i8, ptr %62, i64 1
  %64 = load ptr, ptr %16, align 8, !tbaa !79
  %65 = getelementptr inbounds nuw %struct.H2645NAL, ptr %64, i32 0, i32 3
  %66 = load i32, ptr %65, align 8, !tbaa !84
  %67 = sub nsw i32 %66, 1
  %68 = call i32 @init_get_bits8(ptr noundef %17, ptr noundef %63, i32 noundef %67)
  %69 = load ptr, ptr %11, align 8, !tbaa !17
  %70 = load ptr, ptr %9, align 8, !tbaa !67
  %71 = call i32 @ff_h264_decode_seq_parameter_set(ptr noundef %17, ptr noundef %69, ptr noundef %70, i32 noundef 0)
  store i32 %71, ptr %15, align 4, !tbaa !13
  %72 = load i32, ptr %15, align 4, !tbaa !13
  %73 = icmp sge i32 %72, 0
  br i1 %73, label %74, label %75

74:                                               ; preds = %58
  store i32 6, ptr %18, align 4
  br label %85

75:                                               ; preds = %58
  %76 = load ptr, ptr %16, align 8, !tbaa !79
  %77 = getelementptr inbounds nuw %struct.H2645NAL, ptr %76, i32 0, i32 5
  %78 = load ptr, ptr %11, align 8, !tbaa !17
  %79 = load ptr, ptr %9, align 8, !tbaa !67
  %80 = call i32 @ff_h264_decode_seq_parameter_set(ptr noundef %77, ptr noundef %78, ptr noundef %79, i32 noundef 1)
  store i32 %80, ptr %15, align 4, !tbaa !13
  %81 = load i32, ptr %15, align 4, !tbaa !13
  %82 = icmp slt i32 %81, 0
  br i1 %82, label %83, label %84

83:                                               ; preds = %75
  store i32 2, ptr %18, align 4
  br label %85

84:                                               ; preds = %75
  store i32 6, ptr %18, align 4
  br label %85

85:                                               ; preds = %83, %84, %74, %57
  call void @llvm.lifetime.end.p0(i64 32, ptr %17) #9
  %86 = load i32, ptr %18, align 4
  switch i32 %86, label %106 [
    i32 6, label %105
  ]

87:                                               ; preds = %40
  %88 = load ptr, ptr %16, align 8, !tbaa !79
  %89 = getelementptr inbounds nuw %struct.H2645NAL, ptr %88, i32 0, i32 5
  %90 = load ptr, ptr %11, align 8, !tbaa !17
  %91 = load ptr, ptr %9, align 8, !tbaa !67
  %92 = load ptr, ptr %16, align 8, !tbaa !79
  %93 = getelementptr inbounds nuw %struct.H2645NAL, ptr %92, i32 0, i32 2
  %94 = load i32, ptr %93, align 4, !tbaa !85
  %95 = call i32 @ff_h264_decode_picture_parameter_set(ptr noundef %89, ptr noundef %90, ptr noundef %91, i32 noundef %94)
  store i32 %95, ptr %15, align 4, !tbaa !13
  %96 = load i32, ptr %15, align 4, !tbaa !13
  %97 = icmp slt i32 %96, 0
  br i1 %97, label %98, label %99

98:                                               ; preds = %87
  store i32 2, ptr %18, align 4
  br label %106

99:                                               ; preds = %87
  br label %105

100:                                              ; preds = %40
  %101 = load ptr, ptr %11, align 8, !tbaa !17
  %102 = load ptr, ptr %16, align 8, !tbaa !79
  %103 = getelementptr inbounds nuw %struct.H2645NAL, ptr %102, i32 0, i32 6
  %104 = load i32, ptr %103, align 8, !tbaa !80
  call void (ptr, i32, ptr, ...) @av_log(ptr noundef %101, i32 noundef 40, ptr noundef @.str.18, i32 noundef %104)
  br label %105

105:                                              ; preds = %100, %99, %85
  store i32 0, ptr %18, align 4
  br label %106

106:                                              ; preds = %98, %105, %85
  call void @llvm.lifetime.end.p0(i64 8, ptr %16) #9
  %107 = load i32, ptr %18, align 4
  switch i32 %107, label %115 [
    i32 0, label %108
    i32 2, label %113
  ]

108:                                              ; preds = %106
  br label %109

109:                                              ; preds = %108
  %110 = load i32, ptr %14, align 4, !tbaa !13
  %111 = add nsw i32 %110, 1
  store i32 %111, ptr %14, align 4, !tbaa !13
  br label %35, !llvm.loop !86

112:                                              ; preds = %35
  br label %113

113:                                              ; preds = %112, %106, %33
  call void @ff_h2645_packet_uninit(ptr noundef %12)
  %114 = load i32, ptr %15, align 4, !tbaa !13
  store i32 %114, ptr %6, align 4
  store i32 1, ptr %18, align 4
  br label %115

115:                                              ; preds = %113, %106
  call void @llvm.lifetime.end.p0(i64 4, ptr %15) #9
  call void @llvm.lifetime.end.p0(i64 4, ptr %14) #9
  call void @llvm.lifetime.end.p0(i64 4, ptr %13) #9
  call void @llvm.lifetime.end.p0(i64 48, ptr %12) #9
  %116 = load i32, ptr %6, align 4
  ret i32 %116
}