; Function Attrs: nounwind uwtable
define internal fastcc i32 @decode_extradata_ps(ptr noundef %0, i32 noundef %1, ptr noundef %2, i32 noundef range(i32 0, 2) %3, ptr noundef %4) unnamed_addr #0 {
  %6 = alloca %struct.H2645Packet, align 8
  %7 = alloca %struct.GetBitContext, align 8
  call void @llvm.lifetime.start.p0(i64 48, ptr nonnull %6) #8
  call void @llvm.memset.p0.i64(ptr noundef nonnull align 8 dereferenceable(48) %6, i8 0, i64 48, i1 false)
  %8 = or disjoint i32 %3, 2
  %9 = call i32 @ff_h2645_packet_split(ptr noundef nonnull %6, ptr noundef %0, i32 noundef %1, ptr noundef %4, i32 noundef 2, i32 noundef 27, i32 noundef %8) #8
  %10 = icmp slt i32 %9, 0
  br i1 %10, label %.thread53, label %.preheader

.preheader:                                       ; preds = %5
  %11 = getelementptr inbounds nuw i8, ptr %6, i64 32
  %12 = load i32, ptr %11, align 8, !tbaa !55
  %13 = icmp sgt i32 %12, 0
  br i1 %13, label %.lr.ph, label %.thread53

.lr.ph:                                           ; preds = %.preheader
  %14 = getelementptr inbounds nuw i8, ptr %7, i64 20
  %15 = getelementptr inbounds nuw i8, ptr %7, i64 24
  %16 = getelementptr inbounds nuw i8, ptr %7, i64 8
  %17 = getelementptr inbounds nuw i8, ptr %7, i64 16
  br label %18

18:                                               ; preds = %.lr.ph, %.thread49
  %indvars.iv = phi i64 [ 0, %.lr.ph ], [ %indvars.iv.next, %.thread49 ]
  %.13657 = phi i32 [ %9, %.lr.ph ], [ %.352, %.thread49 ]
  %19 = load ptr, ptr %6, align 8, !tbaa !60
  %20 = getelementptr inbounds nuw %struct.H2645NAL, ptr %19, i64 %indvars.iv
  %21 = getelementptr inbounds nuw i8, ptr %20, i64 64
  %22 = load i32, ptr %21, align 8, !tbaa !61
  switch i32 %22, label %51 [
    i32 7, label %23
    i32 8, label %45
  ]

23:                                               ; preds = %18
  call void @llvm.lifetime.start.p0(i64 32, ptr nonnull %7) #8
  %24 = getelementptr inbounds nuw i8, ptr %20, i64 32
  call void @llvm.memcpy.p0.p0.i64(ptr noundef nonnull align 8 dereferenceable(32) %7, ptr noundef nonnull align 8 dereferenceable(32) %24, i64 32, i1 false), !tbaa.struct !64
  %25 = call i32 @ff_h264_decode_seq_parameter_set(ptr noundef nonnull %7, ptr noundef %4, ptr noundef %2, i32 noundef 0) #8
  %26 = icmp sgt i32 %25, -1
  br i1 %26, label %.thread, label %27

27:                                               ; preds = %23
  call void (ptr, i32, ptr, ...) @av_log(ptr noundef %4, i32 noundef 48, ptr noundef nonnull @.str.17) #8
  %28 = getelementptr inbounds nuw i8, ptr %20, i64 24
  %29 = load ptr, ptr %28, align 8, !tbaa !65
  %30 = getelementptr inbounds nuw i8, ptr %29, i64 1
  %31 = getelementptr inbounds nuw i8, ptr %20, i64 16
  %32 = load i32, ptr %31, align 8, !tbaa !66
  %33 = add nsw i32 %32, -1
  %or.cond.i = icmp ugt i32 %33, 268435455
  %34 = shl nuw nsw i32 %33, 3
  %35 = select i1 %or.cond.i, i32 -8, i32 %34
  %or.cond.i.i = icmp ult i32 %35, 2147483135
  %.018.i.i = select i1 %or.cond.i.i, i32 %35, i32 0
  %.017.i.i = select i1 %or.cond.i.i, ptr %30, ptr null
  %36 = lshr exact i32 %.018.i.i, 3
  store ptr %.017.i.i, ptr %7, align 8, !tbaa !15
  store i32 %.018.i.i, ptr %14, align 4, !tbaa !67
  %37 = add nuw nsw i32 %.018.i.i, 8
  store i32 %37, ptr %15, align 8, !tbaa !14
  %38 = zext nneg i32 %36 to i64
  %39 = getelementptr inbounds nuw i8, ptr %.017.i.i, i64 %38
  store ptr %39, ptr %16, align 8, !tbaa !68
  store i32 0, ptr %17, align 8, !tbaa !10
  %40 = call i32 @ff_h264_decode_seq_parameter_set(ptr noundef nonnull %7, ptr noundef %4, ptr noundef %2, i32 noundef 0) #8
  %41 = icmp sgt i32 %40, -1
  br i1 %41, label %.thread, label %42

.thread:                                          ; preds = %23, %27
  %.2.ph = phi i32 [ %40, %27 ], [ %25, %23 ]
  call void @llvm.lifetime.end.p0(i64 32, ptr nonnull %7) #8
  br label %.thread49

42:                                               ; preds = %27
  %43 = call i32 @ff_h264_decode_seq_parameter_set(ptr noundef nonnull %24, ptr noundef %4, ptr noundef %2, i32 noundef 1) #8
  %44 = icmp sgt i32 %43, -1
  call void @llvm.lifetime.end.p0(i64 32, ptr nonnull %7) #8
  br i1 %44, label %.thread49, label %.thread53

45:                                               ; preds = %18
  %46 = getelementptr inbounds nuw i8, ptr %20, i64 32
  %47 = getelementptr inbounds nuw i8, ptr %20, i64 12
  %48 = load i32, ptr %47, align 4, !tbaa !69
  %49 = call i32 @ff_h264_decode_picture_parameter_set(ptr noundef nonnull %46, ptr noundef %4, ptr noundef %2, i32 noundef %48) #8
  %50 = icmp slt i32 %49, 0
  br i1 %50, label %.thread53, label %.thread49

51:                                               ; preds = %18
  call void (ptr, i32, ptr, ...) @av_log(ptr noundef %4, i32 noundef 40, ptr noundef nonnull @.str.18, i32 noundef %22) #8
  br label %.thread49

.thread49:                                        ; preds = %.thread, %45, %42, %51
  %.352 = phi i32 [ %.13657, %51 ], [ %49, %45 ], [ %43, %42 ], [ %.2.ph, %.thread ]
  %indvars.iv.next = add nuw nsw i64 %indvars.iv, 1
  %52 = load i32, ptr %11, align 8, !tbaa !55
  %53 = sext i32 %52 to i64
  %54 = icmp slt i64 %indvars.iv.next, %53
  br i1 %54, label %18, label %.thread53, !llvm.loop !70

.thread53:                                        ; preds = %.thread49, %45, %42, %.preheader, %5
  %.035 = phi i32 [ 0, %5 ], [ %9, %.preheader ], [ %.352, %.thread49 ], [ %49, %45 ], [ %43, %42 ]
  call void @ff_h2645_packet_uninit(ptr noundef nonnull %6) #8
  call void @llvm.lifetime.end.p0(i64 48, ptr nonnull %6) #8
  ret i32 %.035
}